target datalayout = "e-m:e-p270:32:32-p271:32:32-p272:64:64-i64:64-i128:128-f80:128-n8:16:32:64-S128"
target triple = "x86_64-pc-linux-gnu"

%struct.pmix_mca_base_component_2_1_0_t = type { i32, i32, i32, [16 x i8], i32, i32, i32, [32 x i8], i32, i32, i32, [64 x i8], i32, i32, i32, ptr, ptr, ptr, ptr, [32 x i8] }
%struct.pmix_pdl_base_module_1_0_0_t = type { %struct.pmix_mca_base_module_2_0_0_t, ptr, ptr, ptr, ptr }
%struct.pmix_mca_base_module_2_0_0_t = type { i32 }
%struct.pmix_pdl_pdlopen_component_t = type { %struct.pmix_pdl_base_component_1_0_0_t, ptr, ptr }
%struct.pmix_pdl_base_component_1_0_0_t = type { %struct.pmix_mca_base_component_2_1_0_t, i32 }

@.str = private unnamed_addr constant [47 x i8] c"PMIX pdl pdlopen MCA component version 6.0.0a1\00", align 1
@pmix_pdl_pdlopen_component_version_string = global ptr @.str, align 8
@pmix_mca_pdl_pdlopen_component = global { { %struct.pmix_mca_base_component_2_1_0_t, i32, [4 x i8] }, ptr, ptr } { { %struct.pmix_mca_base_component_2_1_0_t, i32, [4 x i8] } { %struct.pmix_mca_base_component_2_1_0_t { i32 2, i32 1, i32 0, [16 x i8] c"pmix\00\00\00\00\00\00\00\00\00\00\00\00", i32 6, i32 0, i32 0, [32 x i8] c"pdl\00\00\00\00\00\00\00\00\00\00\00\00\00\00\00\00\00\00\00\00\00\00\00\00\00\00\00\00\00", i32 1, i32 0, i32 0, [64 x i8] c"pdlopen\00\00\00\00\00\00\00\00\00\00\00\00\00\00\00\00\00\00\00\00\00\00\00\00\00\00\00\00\00\00\00\00\00\00\00\00\00\00\00\00\00\00\00\00\00\00\00\00\00\00\00\00\00\00\00\00\00", i32 6, i32 0, i32 0, ptr @pdlopen_component_open, ptr @pdlopen_component_close, ptr @pdlopen_component_query, ptr @pdlopen_component_register, [32 x i8] zeroinitializer }, i32 80, [4 x i8] zeroinitializer }, ptr null, ptr null }, align 8
@.str.1 = private unnamed_addr constant [20 x i8] c".so,.dylib,.dll,.sl\00", align 1
@.str.2 = private unnamed_addr constant [18 x i8] c"filename_suffixes\00", align 1
@.str.3 = private unnamed_addr constant [78 x i8] c"Comma-delimited list of filename suffixes that the pdlopen component will try\00", align 1
@pmix_pdl_pdlopen_module = external global %struct.pmix_pdl_base_module_1_0_0_t, align 8

; Function Attrs: nounwind uwtable
define internal i32 @pdlopen_component_open() #0 {
  ret i32 0
}

; Function Attrs: nounwind uwtable
define internal i32 @pdlopen_component_close() #0 {
  %1 = load ptr, ptr getelementptr inbounds nuw (%struct.pmix_pdl_pdlopen_component_t, ptr @pmix_mca_pdl_pdlopen_component, i32 0, i32 2), align 8, !tbaa !3
  %2 = icmp ne ptr null, %1
  br i1 %2, label %3, label %5

3:                                                ; preds = %0
  %4 = load ptr, ptr getelementptr inbounds nuw (%struct.pmix_pdl_pdlopen_component_t, ptr @pmix_mca_pdl_pdlopen_component, i32 0, i32 2), align 8, !tbaa !3
  call void @PMIx_Argv_free(ptr noundef %4)
  store ptr null, ptr getelementptr inbounds nuw (%struct.pmix_pdl_pdlopen_component_t, ptr @pmix_mca_pdl_pdlopen_component, i32 0, i32 2), align 8, !tbaa !3
  br label %5

5:                                                ; preds = %3, %0
  ret i32 0
}

; Function Attrs: nounwind uwtable
define internal i32 @pdlopen_component_query(ptr noundef %0, ptr noundef %1) #0 {
  %3 = alloca ptr, align 8
  %4 = alloca ptr, align 8
  store ptr %0, ptr %3, align 8, !tbaa !13
  store ptr %1, ptr %4, align 8, !tbaa !15
  %5 = load i32, ptr getelementptr inbounds nuw (%struct.pmix_pdl_base_component_1_0_0_t, ptr @pmix_mca_pdl_pdlopen_component, i32 0, i32 1), align 8, !tbaa !17
  %6 = load ptr, ptr %4, align 8, !tbaa !15
  store i32 %5, ptr %6, align 4, !tbaa !18
  %7 = load ptr, ptr %3, align 8, !tbaa !13
  store ptr @pmix_pdl_pdlopen_module, ptr %7, align 8, !tbaa !19
  ret i32 0
}

; Function Attrs: nounwind uwtable
define internal i32 @pdlopen_component_register() #0 {
  %1 = alloca i32, align 4
  %2 = alloca i32, align 4
  %3 = alloca i32, align 4
  call void @llvm.lifetime.start.p0(i64 4, ptr %2) #3
  store ptr @.str.1, ptr getelementptr inbounds nuw (%struct.pmix_pdl_pdlopen_component_t, ptr @pmix_mca_pdl_pdlopen_component, i32 0, i32 1), align 8, !tbaa !21
  %4 = call i32 @pmix_mca_base_component_var_register(ptr noundef @pmix_mca_pdl_pdlopen_component, ptr noundef @.str.2, ptr noundef @.str.3, i32 noundef 5, ptr noundef getelementptr inbounds nuw (%struct.pmix_pdl_pdlopen_component_t, ptr @pmix_mca_pdl_pdlopen_component, i32 0, i32 1))
  store i32 %4, ptr %2, align 4, !tbaa !18
  %5 = load i32, ptr %2, align 4, !tbaa !18
  %6 = icmp slt i32 %5, 0
  br i1 %6, label %7, label %9

7:                                                ; preds = %0
  %8 = load i32, ptr %2, align 4, !tbaa !18
  store i32 %8, ptr %1, align 4
  store i32 1, ptr %3, align 4
  br label %12

9:                                                ; preds = %0
  %10 = load ptr, ptr getelementptr inbounds nuw (%struct.pmix_pdl_pdlopen_component_t, ptr @pmix_mca_pdl_pdlopen_component, i32 0, i32 1), align 8, !tbaa !21
  %11 = call ptr @PMIx_Argv_split(ptr noundef %10, i32 noundef 44)
  store ptr %11, ptr getelementptr inbounds nuw (%struct.pmix_pdl_pdlopen_component_t, ptr @pmix_mca_pdl_pdlopen_component, i32 0, i32 2), align 8, !tbaa !3
  store i32 0, ptr %1, align 4
  store i32 1, ptr %3, align 4
  br label %12

12:                                               ; preds = %9, %7
  call void @llvm.lifetime.end.p0(i64 4, ptr %2) #3
  %13 = load i32, ptr %1, align 4
  ret i32 %13
}

; Function Attrs: nocallback nofree nosync nounwind willreturn memory(argmem: readwrite)
declare void @llvm.lifetime.start.p0(i64 immarg, ptr captures(none)) #1

declare i32 @pmix_mca_base_component_var_register(ptr noundef, ptr noundef, ptr noundef, i32 noundef, ptr noundef) #2

declare ptr @PMIx_Argv_split(ptr noundef, i32 noundef) #2

; Function Attrs: nocallback nofree nosync nounwind willreturn memory(argmem: readwrite)
declare void @llvm.lifetime.end.p0(i64 immarg, ptr captures(none)) #1

declare void @PMIx_Argv_free(ptr noundef) #2


!llvm.module.flags = !{!0, !1, !2}

!0 = !{i32 1, !"wchar_size", i32 4}
!1 = !{i32 8, !"PIC Level", i32 2}
!2 = !{i32 7, !"uwtable", i32 2}
!3 = !{!4, !12, i64 240}
!4 = !{!"", !5, i64 0, !11, i64 232, !12, i64 240}
!5 = !{!"pmix_pdl_base_component_1_0_0_t", !6, i64 0, !7, i64 224}
!6 = !{!"pmix_mca_base_component_2_1_0_t", !7, i64 0, !7, i64 4, !7, i64 8, !8, i64 12, !7, i64 28, !7, i64 32, !7, i64 36, !8, i64 40, !7, i64 72, !7, i64 76, !7, i64 80, !8, i64 84, !7, i64 148, !7, i64 152, !7, i64 156, !10, i64 160, !10, i64 168, !10, i64 176, !10, i64 184, !8, i64 192}
!7 = !{!"int", !8, i64 0}
!8 = !{!"omnipotent char", !9, i64 0}
!9 = !{!"Simple C/C++ TBAA"}
!10 = !{!"any pointer", !8, i64 0}
!11 = !{!"p1 omnipotent char", !10, i64 0}
!12 = !{!"p2 omnipotent char", !10, i64 0}
!13 = !{!14, !14, i64 0}
!14 = !{!"p2 _ZTS28pmix_mca_base_module_2_0_0_t", !10, i64 0}
!15 = !{!16, !16, i64 0}
!16 = !{!"p1 int", !10, i64 0}
!17 = !{!4, !7, i64 224}
!18 = !{!7, !7, i64 0}
!19 = !{!20, !20, i64 0}
!20 = !{!"p1 _ZTS28pmix_mca_base_module_2_0_0_t", !10, i64 0}
!21 = !{!4, !11, i64 232}
